; Function Attrs: nounwind uwtable
define hidden noalias ptr @mi_heap_calloc_aligned(ptr noundef %0, i64 noundef %1, i64 noundef %2, i64 noundef %3) local_unnamed_addr #0 {
  %.not.i = icmp eq i64 %1, 1
  br i1 %.not.i, label %9, label %5

5:                                                ; preds = %4
  %6 = tail call { i64, i1 } @llvm.umul.with.overflow.i64(i64 range(i64 2, 1) %1, i64 %2)
  %7 = extractvalue { i64, i1 } %6, 1
  %8 = extractvalue { i64, i1 } %6, 0
  br i1 %7, label %mi_heap_calloc_aligned_at.exit, label %9, !prof !16

9:                                                ; preds = %5, %4
  %storemerge.i.ph.i = phi i64 [ %2, %4 ], [ %8, %5 ]
  %10 = tail call range(i64 0, 65) i64 @llvm.ctpop.i64(i64 range(i64 1, 0) %3)
  %or.cond.not.i.i.i = icmp eq i64 %10, 1
  br i1 %or.cond.not.i.i.i, label %11, label %mi_heap_calloc_aligned_at.exit, !prof !3

11:                                               ; preds = %9
  %12 = icmp ult i64 %storemerge.i.ph.i, 1025
  %13 = icmp ule i64 %3, %storemerge.i.ph.i
  %14 = and i1 %12, %13
  br i1 %14, label %15, label %.thread.i.i.i, !prof !4

15:                                               ; preds = %11
  %16 = add nuw nsw i64 %storemerge.i.ph.i, 7
  %17 = lshr i64 %16, 3
  %18 = getelementptr inbounds nuw i8, ptr %0, i64 232
  %19 = getelementptr inbounds nuw [129 x ptr], ptr %18, i64 0, i64 %17
  %20 = load ptr, ptr %19, align 8, !tbaa !5
  %21 = getelementptr inbounds nuw i8, ptr %20, i64 8
  %22 = load ptr, ptr %21, align 8, !tbaa !10
  %.not.i.i.i = icmp eq ptr %22, null
  br i1 %.not.i.i.i, label %.thread.i.i.i, label %23, !prof !16

23:                                               ; preds = %15
  %24 = add i64 %3, -1
  %25 = ptrtoint ptr %22 to i64
  %26 = and i64 %24, %25
  %.not36.i.i.i = icmp eq i64 %26, 0
  br i1 %.not36.i.i.i, label %27, label %.thread.i.i.i, !prof !4

27:                                               ; preds = %23
  %28 = tail call ptr @_mi_page_malloc_zeroed(ptr noundef nonnull %0, ptr noundef nonnull %20, i64 noundef %storemerge.i.ph.i) #8
  br label %mi_heap_calloc_aligned_at.exit

.thread.i.i.i:                                    ; preds = %23, %15, %11
  %29 = tail call fastcc ptr @mi_heap_malloc_zero_aligned_at_generic(ptr noundef %0, i64 noundef %storemerge.i.ph.i, i64 noundef %3, i64 noundef 0, i1 noundef zeroext true) #9
  br label %mi_heap_calloc_aligned_at.exit

mi_heap_calloc_aligned_at.exit:                   ; preds = %5, %9, %27, %.thread.i.i.i
  %.0.i = phi ptr [ null, %5 ], [ %29, %.thread.i.i.i ], [ null, %9 ], [ %28, %27 ]
  ret ptr %.0.i
}